; ModuleID = '22/36.c'
source_filename = "22/36.c"
target datalayout = "e-m:e-p270:32:32-p271:32:32-p272:64:64-i64:64-f80:128-n8:16:32:64-S128"
target triple = "x86_64-pc-linux-gnu"

@.str = private unnamed_addr constant [3 x i8] c"No\00", align 1
@.str.1 = private unnamed_addr constant [3 x i8] c"%d\00", align 1

; Function Attrs: noinline nounwind uwtable
define dso_local void @main() #0 {
  %1 = alloca i32, align 4
  %2 = alloca i32, align 4
  %3 = alloca i32, align 4
  %4 = alloca i32, align 4
  %5 = alloca i32, align 4
  %6 = alloca [300 x i32], align 16
  %7 = alloca [1500 x i8], align 16
  store i32 0, i32* %2, align 4
  store i32 0, i32* %3, align 4
  store i32 0, i32* %4, align 4
  store i32 0, i32* %5, align 4
  %8 = bitcast [300 x i32]* %6 to i8*
  call void @llvm.memset.p0i8.i64(i8* align 16 %8, i8 0, i64 1200, i1 false)
  %9 = getelementptr inbounds [1500 x i8], [1500 x i8]* %7, i64 0, i64 0
  %10 = call i32 (i8*, ...) bitcast (i32 (...)* @gets to i32 (i8*, ...)*)(i8* %9)
  store i32 0, i32* %1, align 4
  br label %11

11:                                               ; preds = %44, %0
  %12 = load i32, i32* %1, align 4
  %13 = getelementptr inbounds [1500 x i8], [1500 x i8]* %7, i64 0, i64 0
  %14 = call i64 @strlen(i8* %13) #4
  %15 = trunc i64 %14 to i32
  %16 = icmp slt i32 %12, %15
  br i1 %16, label %17, label %47

17:                                               ; preds = %11
  %18 = load i32, i32* %1, align 4
  %19 = sext i32 %18 to i64
  %20 = getelementptr inbounds [1500 x i8], [1500 x i8]* %7, i64 0, i64 %19
  %21 = load i8, i8* %20, align 1
  %22 = sext i8 %21 to i32
  %23 = icmp ne i32 %22, 44
  br i1 %23, label %24, label %40

24:                                               ; preds = %17
  %25 = load i32, i32* %2, align 4
  %26 = sext i32 %25 to i64
  %27 = getelementptr inbounds [300 x i32], [300 x i32]* %6, i64 0, i64 %26
  %28 = load i32, i32* %27, align 4
  %29 = mul nsw i32 %28, 10
  %30 = load i32, i32* %1, align 4
  %31 = sext i32 %30 to i64
  %32 = getelementptr inbounds [1500 x i8], [1500 x i8]* %7, i64 0, i64 %31
  %33 = load i8, i8* %32, align 1
  %34 = sext i8 %33 to i32
  %35 = add nsw i32 %29, %34
  %36 = sub nsw i32 %35, 48
  %37 = load i32, i32* %2, align 4
  %38 = sext i32 %37 to i64
  %39 = getelementptr inbounds [300 x i32], [300 x i32]* %6, i64 0, i64 %38
  store i32 %36, i32* %39, align 4
  br label %43

40:                                               ; preds = %17
  %41 = load i32, i32* %2, align 4
  %42 = add nsw i32 %41, 1
  store i32 %42, i32* %2, align 4
  br label %43

43:                                               ; preds = %40, %24
  br label %44

44:                                               ; preds = %43
  %45 = load i32, i32* %1, align 4
  %46 = add nsw i32 %45, 1
  store i32 %46, i32* %1, align 4
  br label %11

47:                                               ; preds = %11
  %48 = load i32, i32* %2, align 4
  %49 = icmp eq i32 %48, 0
  br i1 %49, label %50, label %52

50:                                               ; preds = %47
  %51 = call i32 (i8*, ...) @printf(i8* getelementptr inbounds ([3 x i8], [3 x i8]* @.str, i64 0, i64 0))
  br label %132

52:                                               ; preds = %47
  store i32 0, i32* %1, align 4
  br label %53

53:                                               ; preds = %70, %52
  %54 = load i32, i32* %1, align 4
  %55 = load i32, i32* %2, align 4
  %56 = icmp slt i32 %54, %55
  br i1 %56, label %57, label %73

57:                                               ; preds = %53
  %58 = load i32, i32* %1, align 4
  %59 = sext i32 %58 to i64
  %60 = getelementptr inbounds [300 x i32], [300 x i32]* %6, i64 0, i64 %59
  %61 = load i32, i32* %60, align 4
  %62 = load i32, i32* %1, align 4
  %63 = add nsw i32 %62, 1
  %64 = sext i32 %63 to i64
  %65 = getelementptr inbounds [300 x i32], [300 x i32]* %6, i64 0, i64 %64
  %66 = load i32, i32* %65, align 4
  %67 = icmp ne i32 %61, %66
  br i1 %67, label %68, label %69

68:                                               ; preds = %57
  store i32 1, i32* %3, align 4
  br label %73

69:                                               ; preds = %57
  br label %70

70:                                               ; preds = %69
  %71 = load i32, i32* %1, align 4
  %72 = add nsw i32 %71, 1
  store i32 %72, i32* %1, align 4
  br label %53

73:                                               ; preds = %68, %53
  %74 = load i32, i32* %3, align 4
  %75 = icmp eq i32 %74, 0
  br i1 %75, label %76, label %78

76:                                               ; preds = %73
  %77 = call i32 (i8*, ...) @printf(i8* getelementptr inbounds ([3 x i8], [3 x i8]* @.str, i64 0, i64 0))
  br label %132

78:                                               ; preds = %73
  store i32 0, i32* %1, align 4
  br label %79

79:                                               ; preds = %126, %78
  %80 = load i32, i32* %1, align 4
  %81 = load i32, i32* %2, align 4
  %82 = icmp sle i32 %80, %81
  br i1 %82, label %83, label %129

83:                                               ; preds = %79
  %84 = load i32, i32* %1, align 4
  %85 = sext i32 %84 to i64
  %86 = getelementptr inbounds [300 x i32], [300 x i32]* %6, i64 0, i64 %85
  %87 = load i32, i32* %86, align 4
  %88 = load i32, i32* %4, align 4
  %89 = icmp sgt i32 %87, %88
  br i1 %89, label %90, label %96

90:                                               ; preds = %83
  %91 = load i32, i32* %4, align 4
  store i32 %91, i32* %5, align 4
  %92 = load i32, i32* %1, align 4
  %93 = sext i32 %92 to i64
  %94 = getelementptr inbounds [300 x i32], [300 x i32]* %6, i64 0, i64 %93
  %95 = load i32, i32* %94, align 4
  store i32 %95, i32* %4, align 4
  br label %125

96:                                               ; preds = %83
  %97 = load i32, i32* %1, align 4
  %98 = sext i32 %97 to i64
  %99 = getelementptr inbounds [300 x i32], [300 x i32]* %6, i64 0, i64 %98
  %100 = load i32, i32* %99, align 4
  %101 = load i32, i32* %5, align 4
  %102 = icmp eq i32 %100, %101
  br i1 %102, label %103, label %104

103:                                              ; preds = %96
  br label %126

104:                                              ; preds = %96
  %105 = load i32, i32* %1, align 4
  %106 = sext i32 %105 to i64
  %107 = getelementptr inbounds [300 x i32], [300 x i32]* %6, i64 0, i64 %106
  %108 = load i32, i32* %107, align 4
  %109 = load i32, i32* %5, align 4
  %110 = icmp sgt i32 %108, %109
  br i1 %110, label %111, label %123

111:                                              ; preds = %104
  %112 = load i32, i32* %1, align 4
  %113 = sext i32 %112 to i64
  %114 = getelementptr inbounds [300 x i32], [300 x i32]* %6, i64 0, i64 %113
  %115 = load i32, i32* %114, align 4
  %116 = load i32, i32* %4, align 4
  %117 = icmp slt i32 %115, %116
  br i1 %117, label %118, label %123

118:                                              ; preds = %111
  %119 = load i32, i32* %1, align 4
  %120 = sext i32 %119 to i64
  %121 = getelementptr inbounds [300 x i32], [300 x i32]* %6, i64 0, i64 %120
  %122 = load i32, i32* %121, align 4
  store i32 %122, i32* %5, align 4
  br label %123

123:                                              ; preds = %118, %111, %104
  br label %124

124:                                              ; preds = %123
  br label %125

125:                                              ; preds = %124, %90
  br label %126

126:                                              ; preds = %125, %103
  %127 = load i32, i32* %1, align 4
  %128 = add nsw i32 %127, 1
  store i32 %128, i32* %1, align 4
  br label %79

129:                                              ; preds = %79
  %130 = load i32, i32* %5, align 4
  %131 = call i32 (i8*, ...) @printf(i8* getelementptr inbounds ([3 x i8], [3 x i8]* @.str.1, i64 0, i64 0), i32 %130)
  br label %132

132:                                              ; preds = %129, %76, %50
  ret void
}

; Function Attrs: argmemonly nounwind willreturn
declare void @llvm.memset.p0i8.i64(i8* nocapture writeonly, i8, i64, i1 immarg) #1

declare dso_local i32 @gets(...) #2

; Function Attrs: nounwind readonly
declare dso_local i64 @strlen(i8*) #3

declare dso_local i32 @printf(i8*, ...) #2


!llvm.module.flags = !{!0}
!llvm.ident = !{!1}

!0 = !{i32 1, !"wchar_size", i32 4}
!1 = !{!"clang version 10.0.0-4ubuntu1 "}
